target datalayout = "e-m:e-p270:32:32-p271:32:32-p272:64:64-i64:64-i128:128-f80:128-n8:16:32:64-S128"
target triple = "x86_64-pc-linux-gnu"

%struct.slurm_msg = type { %struct.sockaddr_storage, ptr, i32, i32, i32, i8, i32, i8, i32, ptr, ptr, i32, ptr, ptr, i16, i8, i16, i16, %struct.forward, ptr, %struct.sockaddr_storage, ptr }
%struct.forward = type { %struct.slurm_node_alias_addrs_t, i16, i16, ptr, i32, i16, i16 }
%struct.slurm_node_alias_addrs_t = type { i64, ptr, ptr, i32, ptr }
%struct.sockaddr_storage = type { i16, [118 x i8], i64 }

; Function Attrs: nounwind uwtable
define dso_local void @slurm_msg_t_init(ptr noundef %0) #0 {
  %2 = alloca ptr, align 8
  %3 = alloca %struct.slurm_msg, align 8
  store ptr %0, ptr %2, align 8
  %4 = load ptr, ptr %2, align 8
  call void @llvm.memset.p0.i64(ptr align 8 %3, i8 0, i64 424, i1 false)
  %5 = getelementptr inbounds nuw %struct.slurm_msg, ptr %3, i32 0, i32 3
  store i32 99, ptr %5, align 4
  %6 = getelementptr inbounds nuw %struct.slurm_msg, ptr %3, i32 0, i32 4
  store i32 99, ptr %6, align 8
  %7 = getelementptr inbounds nuw %struct.slurm_msg, ptr %3, i32 0, i32 11
  store i32 -1, ptr %7, align 8
  %8 = getelementptr inbounds nuw %struct.slurm_msg, ptr %3, i32 0, i32 16
  store i16 -2, ptr %8, align 4
  %9 = getelementptr inbounds nuw %struct.slurm_msg, ptr %3, i32 0, i32 17
  store i16 -2, ptr %9, align 2
  %10 = getelementptr inbounds nuw %struct.slurm_msg, ptr %3, i32 0, i32 18
  %11 = getelementptr inbounds nuw %struct.forward, ptr %10, i32 0, i32 2
  store i16 -2, ptr %11, align 2
  call void @llvm.memcpy.p0.p0.i64(ptr align 8 %4, ptr align 8 %3, i64 424, i1 false)
  ret void
}