; Function Attrs: mustprogress nofree norecurse nosync nounwind willreturn memory(argmem: write) uwtable
define dso_local void @slurm_msg_t_init(ptr noundef writeonly captures(none) initializes((0, 424)) %0) local_unnamed_addr #4 {
  tail call void @llvm.memset.p0.i64(ptr noundef nonnull align 8 dereferenceable(140) %0, i8 0, i64 140, i1 false)
  %.sroa.2.0..sroa_idx = getelementptr inbounds nuw i8, ptr %0, i64 140
  store i32 99, ptr %.sroa.2.0..sroa_idx, align 4
  %.sroa.3.0..sroa_idx = getelementptr inbounds nuw i8, ptr %0, i64 144
  store i32 99, ptr %.sroa.3.0..sroa_idx, align 8
  %.sroa.4.0..sroa_idx = getelementptr inbounds nuw i8, ptr %0, i64 148
  tail call void @llvm.memset.p0.i64(ptr noundef nonnull align 4 dereferenceable(36) %.sroa.4.0..sroa_idx, i8 0, i64 36, i1 false)
  %.sroa.41.0..sroa_idx = getelementptr inbounds nuw i8, ptr %0, i64 184
  store i32 -1, ptr %.sroa.41.0..sroa_idx, align 8
  %.sroa.5.0..sroa_idx = getelementptr inbounds nuw i8, ptr %0, i64 188
  tail call void @llvm.memset.p0.i64(ptr noundef nonnull align 4 dereferenceable(24) %.sroa.5.0..sroa_idx, i8 0, i64 24, i1 false)
  %.sroa.52.0..sroa_idx = getelementptr inbounds nuw i8, ptr %0, i64 212
  store i16 -2, ptr %.sroa.52.0..sroa_idx, align 4
  %.sroa.6.0..sroa_idx = getelementptr inbounds nuw i8, ptr %0, i64 214
  store i16 -2, ptr %.sroa.6.0..sroa_idx, align 2
  %.sroa.7.0..sroa_idx = getelementptr inbounds nuw i8, ptr %0, i64 216
  tail call void @llvm.memset.p0.i64(ptr noundef nonnull align 8 dereferenceable(42) %.sroa.7.0..sroa_idx, i8 0, i64 42, i1 false)
  %.sroa.73.0..sroa_idx = getelementptr inbounds nuw i8, ptr %0, i64 258
  store i16 -2, ptr %.sroa.73.0..sroa_idx, align 2
  %.sroa.8.0..sroa_idx = getelementptr inbounds nuw i8, ptr %0, i64 260
  tail call void @llvm.memset.p0.i64(ptr noundef nonnull align 4 dereferenceable(164) %.sroa.8.0..sroa_idx, i8 0, i64 164, i1 false)
  ret void
}